target datalayout = "e-m:e-p270:32:32-p271:32:32-p272:64:64-i64:64-i128:128-f80:128-n8:16:32:64-S128"
target triple = "x86_64-pc-linux-gnu"

%struct.ExecCount = type { i64, ptr, i32, i64 }
%struct.qemu_plugin_u64 = type { ptr, i64 }
%struct._GList = type { ptr, ptr, ptr }
%struct._GString = type { ptr, i64, i64 }

@hotblocks = internal global ptr null, align 8
@.str.4 = private unnamed_addr constant [11 x i8] c"collected \00", align 1
@.str.5 = private unnamed_addr constant [30 x i8] c"%d entries in the hash table\0A\00", align 1
@.str.6 = private unnamed_addr constant [28 x i8] c"pc, tcount, icount, ecount\0A\00", align 1
@limit = internal global i64 20, align 8
@.str.7 = private unnamed_addr constant [24 x i8] c"0x%016lx, %d, %ld, %ld\0A\00", align 1

; Function Attrs: inlinehint nounwind sspstrong uwtable
define internal void @g_autoptr_cleanup_gstring_free(ptr noundef %0) #3 {
  %2 = alloca ptr, align 8
  store ptr %0, ptr %2, align 8
  %3 = load ptr, ptr %2, align 8
  %4 = icmp ne ptr %3, null
  br i1 %4, label %5, label %8

5:                                                ; preds = %1
  %6 = load ptr, ptr %2, align 8
  %7 = call ptr @g_string_free(ptr noundef %6, i32 noundef 1)
  br label %8

8:                                                ; preds = %5, %1
  ret void
}

; Function Attrs: inlinehint nounwind sspstrong uwtable
define internal void @glib_autoptr_clear_GString(ptr noundef %0) #3 {
  %2 = alloca ptr, align 8
  store ptr %0, ptr %2, align 8
  %3 = load ptr, ptr %2, align 8
  %4 = icmp ne ptr %3, null
  br i1 %4, label %5, label %7

5:                                                ; preds = %1
  %6 = load ptr, ptr %2, align 8
  call void @g_autoptr_cleanup_gstring_free(ptr noundef %6)
  br label %7

7:                                                ; preds = %5, %1
  ret void
}

; Function Attrs: inlinehint nounwind sspstrong uwtable
define internal void @glib_autoptr_cleanup_GString(ptr noundef %0) #3 {
  %2 = alloca ptr, align 8
  store ptr %0, ptr %2, align 8
  %3 = load ptr, ptr %2, align 8
  %4 = load ptr, ptr %3, align 8
  call void @glib_autoptr_clear_GString(ptr noundef %4)
  ret void
}

; Function Attrs: nounwind sspstrong uwtable
define internal void @plugin_exit(i64 noundef %0, ptr noundef %1) #0 {
  %3 = alloca i64, align 8
  %4 = alloca ptr, align 8
  %5 = alloca ptr, align 8
  %6 = alloca ptr, align 8
  %7 = alloca ptr, align 8
  %8 = alloca i32, align 4
  %9 = alloca ptr, align 8
  %10 = alloca %struct.qemu_plugin_u64, align 8
  store i64 %0, ptr %3, align 8
  store ptr %1, ptr %4, align 8
  call void @llvm.lifetime.start.p0(i64 8, ptr %5) #9
  %11 = call ptr @g_string_new(ptr noundef @.str.4)
  store ptr %11, ptr %5, align 8
  call void @llvm.lifetime.start.p0(i64 8, ptr %6) #9
  store ptr null, ptr %6, align 8, !annotation !5
  call void @llvm.lifetime.start.p0(i64 8, ptr %7) #9
  store ptr null, ptr %7, align 8, !annotation !5
  call void @llvm.lifetime.start.p0(i64 4, ptr %8) #9
  store i32 0, ptr %8, align 4, !annotation !5
  %12 = load ptr, ptr %5, align 8
  %13 = load ptr, ptr @hotblocks, align 8
  %14 = call i32 @g_hash_table_size(ptr noundef %13)
  call void (ptr, ptr, ...) @g_string_append_printf(ptr noundef %12, ptr noundef @.str.5, i32 noundef %14)
  %15 = load ptr, ptr @hotblocks, align 8
  %16 = call ptr @g_hash_table_get_values(ptr noundef %15)
  store ptr %16, ptr %6, align 8
  %17 = load ptr, ptr %6, align 8
  %18 = call ptr @g_list_sort(ptr noundef %17, ptr noundef @cmp_exec_count)
  store ptr %18, ptr %7, align 8
  %19 = load ptr, ptr %7, align 8
  %20 = icmp ne ptr %19, null
  br i1 %20, label %21, label %67

21:                                               ; preds = %2
  %22 = load ptr, ptr %5, align 8
  call void (ptr, ptr, ...) @g_string_append_printf(ptr noundef %22, ptr noundef @.str.6)
  store i32 0, ptr %8, align 4
  br label %23

23:                                               ; preds = %59, %21
  %24 = load i32, ptr %8, align 4
  %25 = sext i32 %24 to i64
  %26 = load i64, ptr @limit, align 8
  %27 = icmp ult i64 %25, %26
  br i1 %27, label %28, label %33

28:                                               ; preds = %23
  %29 = load ptr, ptr %7, align 8
  %30 = getelementptr inbounds nuw %struct._GList, ptr %29, i32 0, i32 1
  %31 = load ptr, ptr %30, align 8
  %32 = icmp ne ptr %31, null
  br label %33

33:                                               ; preds = %28, %23
  %34 = phi i1 [ false, %23 ], [ %32, %28 ]
  br i1 %34, label %35, label %65

35:                                               ; preds = %33
  call void @llvm.lifetime.start.p0(i64 8, ptr %9) #9
  %36 = load ptr, ptr %7, align 8
  %37 = getelementptr inbounds nuw %struct._GList, ptr %36, i32 0, i32 0
  %38 = load ptr, ptr %37, align 8
  store ptr %38, ptr %9, align 8
  %39 = load ptr, ptr %5, align 8
  %40 = load ptr, ptr %9, align 8
  %41 = getelementptr inbounds nuw %struct.ExecCount, ptr %40, i32 0, i32 0
  %42 = load i64, ptr %41, align 8
  %43 = load ptr, ptr %9, align 8
  %44 = getelementptr inbounds nuw %struct.ExecCount, ptr %43, i32 0, i32 2
  %45 = load i32, ptr %44, align 8
  %46 = load ptr, ptr %9, align 8
  %47 = getelementptr inbounds nuw %struct.ExecCount, ptr %46, i32 0, i32 3
  %48 = load i64, ptr %47, align 8
  %49 = getelementptr inbounds nuw %struct.qemu_plugin_u64, ptr %10, i32 0, i32 0
  %50 = load ptr, ptr %9, align 8
  %51 = getelementptr inbounds nuw %struct.ExecCount, ptr %50, i32 0, i32 1
  %52 = load ptr, ptr %51, align 8
  store ptr %52, ptr %49, align 8
  %53 = getelementptr inbounds nuw %struct.qemu_plugin_u64, ptr %10, i32 0, i32 1
  store i64 0, ptr %53, align 8
  %54 = getelementptr inbounds nuw { ptr, i64 }, ptr %10, i32 0, i32 0
  %55 = load ptr, ptr %54, align 8
  %56 = getelementptr inbounds nuw { ptr, i64 }, ptr %10, i32 0, i32 1
  %57 = load i64, ptr %56, align 8
  %58 = call i64 @qemu_plugin_u64_sum(ptr %55, i64 %57)
  call void (ptr, ptr, ...) @g_string_append_printf(ptr noundef %39, ptr noundef @.str.7, i64 noundef %42, i32 noundef %45, i64 noundef %48, i64 noundef %58)
  call void @llvm.lifetime.end.p0(i64 8, ptr %9) #9
  br label %59

59:                                               ; preds = %35
  %60 = load i32, ptr %8, align 4
  %61 = add i32 %60, 1
  store i32 %61, ptr %8, align 4
  %62 = load ptr, ptr %7, align 8
  %63 = getelementptr inbounds nuw %struct._GList, ptr %62, i32 0, i32 1
  %64 = load ptr, ptr %63, align 8
  store ptr %64, ptr %7, align 8
  br label %23, !llvm.loop !8

65:                                               ; preds = %33
  %66 = load ptr, ptr %7, align 8
  call void @g_list_free(ptr noundef %66)
  br label %67

67:                                               ; preds = %65, %2
  %68 = load ptr, ptr %5, align 8
  %69 = getelementptr inbounds nuw %struct._GString, ptr %68, i32 0, i32 0
  %70 = load ptr, ptr %69, align 8
  call void @qemu_plugin_outs(ptr noundef %70)
  %71 = load ptr, ptr @hotblocks, align 8
  call void @g_hash_table_foreach(ptr noundef %71, ptr noundef @exec_count_free, ptr noundef null)
  %72 = load ptr, ptr @hotblocks, align 8
  call void @g_hash_table_destroy(ptr noundef %72)
  call void @llvm.lifetime.end.p0(i64 4, ptr %8) #9
  call void @llvm.lifetime.end.p0(i64 8, ptr %7) #9
  call void @llvm.lifetime.end.p0(i64 8, ptr %6) #9
  call void @glib_autoptr_cleanup_GString(ptr noundef %5)
  call void @llvm.lifetime.end.p0(i64 8, ptr %5) #9
  ret void
}