; Function Attrs: nounwind sspstrong uwtable
define internal void @plugin_exit(i64 %0, ptr readnone captures(none) %1) #0 {
  %3 = tail call ptr @g_string_new(ptr noundef nonnull @.str.4) #7
  %4 = load ptr, ptr @hotblocks, align 8
  %5 = tail call i32 @g_hash_table_size(ptr noundef %4) #7
  tail call void (ptr, ptr, ...) @g_string_append_printf(ptr noundef %3, ptr noundef nonnull @.str.5, i32 noundef %5) #7
  %6 = load ptr, ptr @hotblocks, align 8
  %7 = tail call ptr @g_hash_table_get_values(ptr noundef %6) #7
  %8 = tail call ptr @g_list_sort(ptr noundef %7, ptr noundef nonnull @cmp_exec_count) #7
  %.not = icmp eq ptr %8, null
  br i1 %.not, label %glib_autoptr_cleanup_GString.exit, label %9

9:                                                ; preds = %2
  tail call void (ptr, ptr, ...) @g_string_append_printf(ptr noundef %3, ptr noundef nonnull @.str.6) #7
  br label %10

10:                                               ; preds = %9, %13
  %.017 = phi ptr [ %8, %9 ], [ %24, %13 ]
  %.01116 = phi i32 [ 0, %9 ], [ %23, %13 ]
  %11 = getelementptr inbounds nuw i8, ptr %.017, i64 8
  %12 = load ptr, ptr %11, align 8
  %.not13 = icmp eq ptr %12, null
  br i1 %.not13, label %.critedge, label %13

13:                                               ; preds = %10
  %14 = load ptr, ptr %.017, align 8
  %15 = load i64, ptr %14, align 8
  %16 = getelementptr inbounds nuw i8, ptr %14, i64 16
  %17 = load i32, ptr %16, align 8
  %18 = getelementptr inbounds nuw i8, ptr %14, i64 24
  %19 = load i64, ptr %18, align 8
  %20 = getelementptr inbounds nuw i8, ptr %14, i64 8
  %21 = load ptr, ptr %20, align 8
  %22 = tail call i64 @qemu_plugin_u64_sum(ptr %21, i64 0) #7
  tail call void (ptr, ptr, ...) @g_string_append_printf(ptr noundef %3, ptr noundef nonnull @.str.7, i64 noundef %15, i32 noundef %17, i64 noundef %19, i64 noundef %22) #7
  %23 = add nuw nsw i32 %.01116, 1
  %24 = load ptr, ptr %11, align 8
  %exitcond.not = icmp eq i32 %23, 20
  br i1 %exitcond.not, label %.critedge, label %10, !llvm.loop !8

.critedge:                                        ; preds = %13, %10
  %.0.lcssa = phi ptr [ %24, %13 ], [ %.017, %10 ]
  tail call void @g_list_free(ptr noundef %.0.lcssa) #7
  br label %glib_autoptr_cleanup_GString.exit

glib_autoptr_cleanup_GString.exit:                ; preds = %.critedge, %2
  %25 = load ptr, ptr %3, align 8
  tail call void @qemu_plugin_outs(ptr noundef %25) #7
  %26 = load ptr, ptr @hotblocks, align 8
  tail call void @g_hash_table_foreach(ptr noundef %26, ptr noundef nonnull @exec_count_free, ptr noundef null) #7
  %27 = load ptr, ptr @hotblocks, align 8
  tail call void @g_hash_table_destroy(ptr noundef %27) #7
  %28 = tail call ptr @g_string_free(ptr noundef nonnull %3, i32 noundef 1) #7
  ret void
}